; Function Attrs: nounwind uwtable
define ptr @l_Lake_quoteLeanOptionValue(ptr noundef %0) #0 {
  %2 = ptrtoint ptr %0 to i64
  %3 = and i64 %2, 1
  %.not.i30 = icmp eq i64 %3, 0
  br i1 %.not.i30, label %7, label %4

4:                                                ; preds = %1
  %5 = lshr i64 %2, 1
  %6 = trunc i64 %5 to i32
  br label %lean_obj_tag.exit

7:                                                ; preds = %1
  %8 = getelementptr i8, ptr %0, i64 4
  %.val.i = load i32, ptr %8, align 4
  %9 = lshr i32 %.val.i, 24
  br label %lean_obj_tag.exit

lean_obj_tag.exit:                                ; preds = %4, %7
  %.0.i = phi i32 [ %6, %4 ], [ %9, %7 ]
  %10 = getelementptr inbounds nuw i8, ptr %0, i64 8
  switch i32 %.0.i, label %46 [
    i32 0, label %11
    i32 1, label %36
  ]

11:                                               ; preds = %lean_obj_tag.exit
  %12 = load ptr, ptr %10, align 8, !tbaa !12
  %13 = ptrtoint ptr %12 to i64
  %14 = and i64 %13, 1
  %.not36 = icmp eq i64 %14, 0
  br i1 %.not36, label %15, label %lean_inc.exit23

15:                                               ; preds = %11
  %.val.i31 = load i32, ptr %12, align 4, !tbaa !8
  %16 = icmp sgt i32 %.val.i31, 0
  br i1 %16, label %17, label %19, !prof !11

17:                                               ; preds = %15
  %18 = add nuw i32 %.val.i31, 1
  store i32 %18, ptr %12, align 4, !tbaa !8
  br label %lean_inc.exit23

19:                                               ; preds = %15
  %.not.i32 = icmp eq i32 %.val.i31, 0
  br i1 %.not.i32, label %lean_inc.exit23, label %20

20:                                               ; preds = %19
  tail call void @lean_inc_ref_cold(ptr noundef nonnull %12) #6
  br label %lean_inc.exit23

lean_inc.exit23:                                  ; preds = %20, %19, %17, %11
  br i1 %.not.i30, label %21, label %lean_dec.exit22

21:                                               ; preds = %lean_inc.exit23
  %22 = load i32, ptr %0, align 4, !tbaa !8
  %23 = icmp sgt i32 %22, 1
  br i1 %23, label %24, label %26, !prof !11

24:                                               ; preds = %21
  %25 = add nsw i32 %22, -1
  store i32 %25, ptr %0, align 4, !tbaa !8
  br label %lean_dec.exit22

26:                                               ; preds = %21
  %.not.i = icmp eq i32 %22, 0
  br i1 %.not.i, label %lean_dec.exit22, label %27

27:                                               ; preds = %26
  tail call void @lean_dec_ref_cold(ptr noundef nonnull %0) #6
  br label %lean_dec.exit22

lean_dec.exit22:                                  ; preds = %27, %26, %24, %lean_inc.exit23
  %28 = tail call ptr @l_Lean_Syntax_mkStrLit(ptr noundef %12, ptr noundef nonnull inttoptr (i64 5 to ptr)) #6
  br i1 %.not36, label %29, label %lean_dec.exit21

29:                                               ; preds = %lean_dec.exit22
  %30 = load i32, ptr %12, align 4, !tbaa !8
  %31 = icmp sgt i32 %30, 1
  br i1 %31, label %32, label %34, !prof !11

32:                                               ; preds = %29
  %33 = add nsw i32 %30, -1
  store i32 %33, ptr %12, align 4, !tbaa !8
  br label %lean_dec.exit21

34:                                               ; preds = %29
  %.not.i24 = icmp eq i32 %30, 0
  br i1 %.not.i24, label %lean_dec.exit21, label %35

35:                                               ; preds = %34
  tail call void @lean_dec_ref_cold(ptr noundef nonnull %12) #6
  br label %lean_dec.exit21

36:                                               ; preds = %lean_obj_tag.exit
  %37 = load i8, ptr %10, align 1, !tbaa !17
  br i1 %.not.i30, label %38, label %lean_dec.exit20

38:                                               ; preds = %36
  %39 = load i32, ptr %0, align 4, !tbaa !8
  %40 = icmp sgt i32 %39, 1
  br i1 %40, label %41, label %43, !prof !11

41:                                               ; preds = %38
  %42 = add nsw i32 %39, -1
  store i32 %42, ptr %0, align 4, !tbaa !8
  br label %lean_dec.exit20

43:                                               ; preds = %38
  %.not.i26 = icmp eq i32 %39, 0
  br i1 %.not.i26, label %lean_dec.exit20, label %44

44:                                               ; preds = %43
  tail call void @lean_dec_ref_cold(ptr noundef nonnull %0) #6
  br label %lean_dec.exit20

lean_dec.exit20:                                  ; preds = %44, %43, %41, %36
  %45 = icmp eq i8 %37, 0
  %l_Lake_instToLeanBoolMkStr1___closed__3.val = load ptr, ptr @l_Lake_instToLeanBoolMkStr1___closed__3, align 8
  %l_Lake_instToLeanBoolMkStr1___closed__6.val = load ptr, ptr @l_Lake_instToLeanBoolMkStr1___closed__6, align 8
  %.1 = select i1 %45, ptr %l_Lake_instToLeanBoolMkStr1___closed__3.val, ptr %l_Lake_instToLeanBoolMkStr1___closed__6.val
  br label %lean_dec.exit21

46:                                               ; preds = %lean_obj_tag.exit
  %47 = load ptr, ptr %10, align 8, !tbaa !12
  %48 = ptrtoint ptr %47 to i64
  %49 = and i64 %48, 1
  %.not38 = icmp eq i64 %49, 0
  br i1 %.not38, label %50, label %lean_inc.exit

50:                                               ; preds = %46
  %.val.i33 = load i32, ptr %47, align 4, !tbaa !8
  %51 = icmp sgt i32 %.val.i33, 0
  br i1 %51, label %52, label %54, !prof !11

52:                                               ; preds = %50
  %53 = add nuw i32 %.val.i33, 1
  store i32 %53, ptr %47, align 4, !tbaa !8
  br label %lean_inc.exit

54:                                               ; preds = %50
  %.not.i34 = icmp eq i32 %.val.i33, 0
  br i1 %.not.i34, label %lean_inc.exit, label %55

55:                                               ; preds = %54
  tail call void @lean_inc_ref_cold(ptr noundef nonnull %47) #6
  br label %lean_inc.exit

lean_inc.exit:                                    ; preds = %55, %54, %52, %46
  br i1 %.not.i30, label %56, label %lean_dec.exit

56:                                               ; preds = %lean_inc.exit
  %57 = load i32, ptr %0, align 4, !tbaa !8
  %58 = icmp sgt i32 %57, 1
  br i1 %58, label %59, label %61, !prof !11

59:                                               ; preds = %56
  %60 = add nsw i32 %57, -1
  store i32 %60, ptr %0, align 4, !tbaa !8
  br label %lean_dec.exit

61:                                               ; preds = %56
  %.not.i28 = icmp eq i32 %57, 0
  br i1 %.not.i28, label %lean_dec.exit, label %62

62:                                               ; preds = %61
  tail call void @lean_dec_ref_cold(ptr noundef nonnull %0) #6
  br label %lean_dec.exit

lean_dec.exit:                                    ; preds = %62, %61, %59, %lean_inc.exit
  %63 = tail call ptr @l___private_Init_Data_Repr_0__Nat_reprFast(ptr noundef %47) #6
  %64 = tail call ptr @l_Lean_Syntax_mkNumLit(ptr noundef %63, ptr noundef nonnull inttoptr (i64 5 to ptr)) #6
  br label %lean_dec.exit21

lean_dec.exit21:                                  ; preds = %lean_dec.exit22, %32, %34, %35, %lean_dec.exit, %lean_dec.exit20
  %.0 = phi ptr [ %64, %lean_dec.exit ], [ %.1, %lean_dec.exit20 ], [ %28, %35 ], [ %28, %34 ], [ %28, %32 ], [ %28, %lean_dec.exit22 ]
  ret ptr %.0
}